target datalayout = "e-m:e-p270:32:32-p271:32:32-p272:64:64-i64:64-i128:128-f80:128-n8:16:32:64-S128"
target triple = "x86_64-pc-linux-gnu"

%struct.SDL_PixelFormatDetails = type { i32, i8, i8, [2 x i8], i32, i32, i32, i32, i8, i8, i8, i8, i8, i8, i8, i8 }

@SDL_expand_byte = external global [9 x ptr], align 16

; Function Attrs: nounwind uwtable
define internal i32 @uncopy_32(ptr noundef %0, ptr noundef %1, i32 noundef %2, ptr noundef %3, ptr noundef %4) #0 {
  %6 = alloca ptr, align 8
  %7 = alloca ptr, align 8
  %8 = alloca i32, align 4
  %9 = alloca ptr, align 8
  %10 = alloca ptr, align 8
  %11 = alloca i32, align 4
  %12 = alloca ptr, align 8
  %13 = alloca i32, align 4
  %14 = alloca i32, align 4
  %15 = alloca i32, align 4
  %16 = alloca i32, align 4
  %17 = alloca i32, align 4
  store ptr %0, ptr %6, align 8
  store ptr %1, ptr %7, align 8
  store i32 %2, ptr %8, align 4
  store ptr %3, ptr %9, align 8
  store ptr %4, ptr %10, align 8
  call void @llvm.lifetime.start.p0(i64 4, ptr %11) #8
  call void @llvm.lifetime.start.p0(i64 8, ptr %12) #8
  %18 = load ptr, ptr %7, align 8
  store ptr %18, ptr %12, align 8
  store i32 0, ptr %11, align 4
  br label %19

19:                                               ; preds = %143, %5
  %20 = load i32, ptr %11, align 4
  %21 = load i32, ptr %8, align 4
  %22 = icmp slt i32 %20, %21
  br i1 %22, label %23, label %146

23:                                               ; preds = %19
  call void @llvm.lifetime.start.p0(i64 4, ptr %13) #8
  call void @llvm.lifetime.start.p0(i64 4, ptr %14) #8
  call void @llvm.lifetime.start.p0(i64 4, ptr %15) #8
  call void @llvm.lifetime.start.p0(i64 4, ptr %16) #8
  call void @llvm.lifetime.start.p0(i64 4, ptr %17) #8
  %24 = load ptr, ptr %12, align 8
  %25 = getelementptr inbounds nuw i32, ptr %24, i32 1
  store ptr %25, ptr %12, align 8
  %26 = load i32, ptr %24, align 4
  store i32 %26, ptr %17, align 4
  %27 = load ptr, ptr %9, align 8
  %28 = getelementptr inbounds nuw %struct.SDL_PixelFormatDetails, ptr %27, i32 0, i32 8
  %29 = load i8, ptr %28, align 4
  %30 = zext i8 %29 to i64
  %31 = getelementptr inbounds nuw [9 x ptr], ptr @SDL_expand_byte, i64 0, i64 %30
  %32 = load ptr, ptr %31, align 8
  %33 = load i32, ptr %17, align 4
  %34 = load ptr, ptr %9, align 8
  %35 = getelementptr inbounds nuw %struct.SDL_PixelFormatDetails, ptr %34, i32 0, i32 4
  %36 = load i32, ptr %35, align 4
  %37 = and i32 %33, %36
  %38 = load ptr, ptr %9, align 8
  %39 = getelementptr inbounds nuw %struct.SDL_PixelFormatDetails, ptr %38, i32 0, i32 12
  %40 = load i8, ptr %39, align 4
  %41 = zext i8 %40 to i32
  %42 = lshr i32 %37, %41
  %43 = zext i32 %42 to i64
  %44 = getelementptr inbounds nuw i8, ptr %32, i64 %43
  %45 = load i8, ptr %44, align 1
  %46 = zext i8 %45 to i32
  store i32 %46, ptr %13, align 4
  %47 = load ptr, ptr %9, align 8
  %48 = getelementptr inbounds nuw %struct.SDL_PixelFormatDetails, ptr %47, i32 0, i32 9
  %49 = load i8, ptr %48, align 1
  %50 = zext i8 %49 to i64
  %51 = getelementptr inbounds nuw [9 x ptr], ptr @SDL_expand_byte, i64 0, i64 %50
  %52 = load ptr, ptr %51, align 8
  %53 = load i32, ptr %17, align 4
  %54 = load ptr, ptr %9, align 8
  %55 = getelementptr inbounds nuw %struct.SDL_PixelFormatDetails, ptr %54, i32 0, i32 5
  %56 = load i32, ptr %55, align 4
  %57 = and i32 %53, %56
  %58 = load ptr, ptr %9, align 8
  %59 = getelementptr inbounds nuw %struct.SDL_PixelFormatDetails, ptr %58, i32 0, i32 13
  %60 = load i8, ptr %59, align 1
  %61 = zext i8 %60 to i32
  %62 = lshr i32 %57, %61
  %63 = zext i32 %62 to i64
  %64 = getelementptr inbounds nuw i8, ptr %52, i64 %63
  %65 = load i8, ptr %64, align 1
  %66 = zext i8 %65 to i32
  store i32 %66, ptr %14, align 4
  %67 = load ptr, ptr %9, align 8
  %68 = getelementptr inbounds nuw %struct.SDL_PixelFormatDetails, ptr %67, i32 0, i32 10
  %69 = load i8, ptr %68, align 2
  %70 = zext i8 %69 to i64
  %71 = getelementptr inbounds nuw [9 x ptr], ptr @SDL_expand_byte, i64 0, i64 %70
  %72 = load ptr, ptr %71, align 8
  %73 = load i32, ptr %17, align 4
  %74 = load ptr, ptr %9, align 8
  %75 = getelementptr inbounds nuw %struct.SDL_PixelFormatDetails, ptr %74, i32 0, i32 6
  %76 = load i32, ptr %75, align 4
  %77 = and i32 %73, %76
  %78 = load ptr, ptr %9, align 8
  %79 = getelementptr inbounds nuw %struct.SDL_PixelFormatDetails, ptr %78, i32 0, i32 14
  %80 = load i8, ptr %79, align 2
  %81 = zext i8 %80 to i32
  %82 = lshr i32 %77, %81
  %83 = zext i32 %82 to i64
  %84 = getelementptr inbounds nuw i8, ptr %72, i64 %83
  %85 = load i8, ptr %84, align 1
  %86 = zext i8 %85 to i32
  store i32 %86, ptr %15, align 4
  %87 = load i32, ptr %17, align 4
  %88 = lshr i32 %87, 24
  store i32 %88, ptr %16, align 4
  %89 = load i32, ptr %13, align 4
  %90 = load ptr, ptr %10, align 8
  %91 = getelementptr inbounds nuw %struct.SDL_PixelFormatDetails, ptr %90, i32 0, i32 8
  %92 = load i8, ptr %91, align 4
  %93 = zext i8 %92 to i32
  %94 = sub nsw i32 8, %93
  %95 = lshr i32 %89, %94
  %96 = load ptr, ptr %10, align 8
  %97 = getelementptr inbounds nuw %struct.SDL_PixelFormatDetails, ptr %96, i32 0, i32 12
  %98 = load i8, ptr %97, align 4
  %99 = zext i8 %98 to i32
  %100 = shl i32 %95, %99
  %101 = load i32, ptr %14, align 4
  %102 = load ptr, ptr %10, align 8
  %103 = getelementptr inbounds nuw %struct.SDL_PixelFormatDetails, ptr %102, i32 0, i32 9
  %104 = load i8, ptr %103, align 1
  %105 = zext i8 %104 to i32
  %106 = sub nsw i32 8, %105
  %107 = lshr i32 %101, %106
  %108 = load ptr, ptr %10, align 8
  %109 = getelementptr inbounds nuw %struct.SDL_PixelFormatDetails, ptr %108, i32 0, i32 13
  %110 = load i8, ptr %109, align 1
  %111 = zext i8 %110 to i32
  %112 = shl i32 %107, %111
  %113 = or i32 %100, %112
  %114 = load i32, ptr %15, align 4
  %115 = load ptr, ptr %10, align 8
  %116 = getelementptr inbounds nuw %struct.SDL_PixelFormatDetails, ptr %115, i32 0, i32 10
  %117 = load i8, ptr %116, align 2
  %118 = zext i8 %117 to i32
  %119 = sub nsw i32 8, %118
  %120 = lshr i32 %114, %119
  %121 = load ptr, ptr %10, align 8
  %122 = getelementptr inbounds nuw %struct.SDL_PixelFormatDetails, ptr %121, i32 0, i32 14
  %123 = load i8, ptr %122, align 2
  %124 = zext i8 %123 to i32
  %125 = shl i32 %120, %124
  %126 = or i32 %113, %125
  %127 = load i32, ptr %16, align 4
  %128 = load ptr, ptr %10, align 8
  %129 = getelementptr inbounds nuw %struct.SDL_PixelFormatDetails, ptr %128, i32 0, i32 11
  %130 = load i8, ptr %129, align 1
  %131 = zext i8 %130 to i32
  %132 = sub nsw i32 8, %131
  %133 = lshr i32 %127, %132
  %134 = load ptr, ptr %10, align 8
  %135 = getelementptr inbounds nuw %struct.SDL_PixelFormatDetails, ptr %134, i32 0, i32 15
  %136 = load i8, ptr %135, align 1
  %137 = zext i8 %136 to i32
  %138 = shl i32 %133, %137
  %139 = or i32 %126, %138
  %140 = load ptr, ptr %6, align 8
  store i32 %139, ptr %140, align 4
  %141 = load ptr, ptr %6, align 8
  %142 = getelementptr inbounds nuw i32, ptr %141, i32 1
  store ptr %142, ptr %6, align 8
  call void @llvm.lifetime.end.p0(i64 4, ptr %17) #8
  call void @llvm.lifetime.end.p0(i64 4, ptr %16) #8
  call void @llvm.lifetime.end.p0(i64 4, ptr %15) #8
  call void @llvm.lifetime.end.p0(i64 4, ptr %14) #8
  call void @llvm.lifetime.end.p0(i64 4, ptr %13) #8
  br label %143

143:                                              ; preds = %23
  %144 = load i32, ptr %11, align 4
  %145 = add nsw i32 %144, 1
  store i32 %145, ptr %11, align 4
  br label %19, !llvm.loop !82

146:                                              ; preds = %19
  %147 = load i32, ptr %8, align 4
  %148 = mul nsw i32 %147, 4
  call void @llvm.lifetime.end.p0(i64 8, ptr %12) #8
  call void @llvm.lifetime.end.p0(i64 4, ptr %11) #8
  ret i32 %148
}