; Function Attrs: nofree norecurse nosync nounwind memory(read, argmem: readwrite, inaccessiblemem: none) uwtable
define internal range(i32 -2147483648, 2147483645) i32 @uncopy_32(ptr noundef writeonly captures(none) %0, ptr noundef readonly captures(none) %1, i32 noundef %2, ptr noundef readonly captures(none) %3, ptr noundef readonly captures(none) %4) unnamed_addr #6 {
  %6 = icmp sgt i32 %2, 0
  br i1 %6, label %.lr.ph, label %._crit_edge

.lr.ph:                                           ; preds = %5
  %7 = getelementptr inbounds nuw i8, ptr %3, i64 24
  %8 = getelementptr inbounds nuw i8, ptr %3, i64 8
  %9 = getelementptr inbounds nuw i8, ptr %3, i64 28
  %10 = getelementptr inbounds nuw i8, ptr %3, i64 25
  %11 = getelementptr inbounds nuw i8, ptr %3, i64 12
  %12 = getelementptr inbounds nuw i8, ptr %3, i64 29
  %13 = getelementptr inbounds nuw i8, ptr %3, i64 26
  %14 = getelementptr inbounds nuw i8, ptr %3, i64 16
  %15 = getelementptr inbounds nuw i8, ptr %3, i64 30
  %16 = getelementptr inbounds nuw i8, ptr %4, i64 24
  %17 = getelementptr inbounds nuw i8, ptr %4, i64 28
  %18 = getelementptr inbounds nuw i8, ptr %4, i64 25
  %19 = getelementptr inbounds nuw i8, ptr %4, i64 29
  %20 = getelementptr inbounds nuw i8, ptr %4, i64 26
  %21 = getelementptr inbounds nuw i8, ptr %4, i64 30
  %22 = getelementptr inbounds nuw i8, ptr %4, i64 27
  %23 = getelementptr inbounds nuw i8, ptr %4, i64 31
  br label %24

24:                                               ; preds = %.lr.ph, %24
  %.037 = phi ptr [ %0, %.lr.ph ], [ %98, %24 ]
  %.03236 = phi i32 [ 0, %.lr.ph ], [ %99, %24 ]
  %.03335 = phi ptr [ %1, %.lr.ph ], [ %25, %24 ]
  %25 = getelementptr inbounds nuw i8, ptr %.03335, i64 4
  %26 = load i32, ptr %.03335, align 4
  %27 = load i8, ptr %7, align 4
  %28 = zext i8 %27 to i64
  %29 = getelementptr inbounds nuw [9 x ptr], ptr @SDL_expand_byte, i64 0, i64 %28
  %30 = load ptr, ptr %29, align 8
  %31 = load i32, ptr %8, align 4
  %32 = and i32 %31, %26
  %33 = load i8, ptr %9, align 4
  %34 = zext nneg i8 %33 to i32
  %35 = lshr i32 %32, %34
  %36 = zext i32 %35 to i64
  %37 = getelementptr inbounds nuw i8, ptr %30, i64 %36
  %38 = load i8, ptr %37, align 1
  %39 = zext i8 %38 to i32
  %40 = load i8, ptr %10, align 1
  %41 = zext i8 %40 to i64
  %42 = getelementptr inbounds nuw [9 x ptr], ptr @SDL_expand_byte, i64 0, i64 %41
  %43 = load ptr, ptr %42, align 8
  %44 = load i32, ptr %11, align 4
  %45 = and i32 %44, %26
  %46 = load i8, ptr %12, align 1
  %47 = zext nneg i8 %46 to i32
  %48 = lshr i32 %45, %47
  %49 = zext i32 %48 to i64
  %50 = getelementptr inbounds nuw i8, ptr %43, i64 %49
  %51 = load i8, ptr %50, align 1
  %52 = zext i8 %51 to i32
  %53 = load i8, ptr %13, align 2
  %54 = zext i8 %53 to i64
  %55 = getelementptr inbounds nuw [9 x ptr], ptr @SDL_expand_byte, i64 0, i64 %54
  %56 = load ptr, ptr %55, align 8
  %57 = load i32, ptr %14, align 4
  %58 = and i32 %57, %26
  %59 = load i8, ptr %15, align 2
  %60 = zext nneg i8 %59 to i32
  %61 = lshr i32 %58, %60
  %62 = zext i32 %61 to i64
  %63 = getelementptr inbounds nuw i8, ptr %56, i64 %62
  %64 = load i8, ptr %63, align 1
  %65 = zext i8 %64 to i32
  %66 = lshr i32 %26, 24
  %67 = load i8, ptr %16, align 4
  %68 = zext i8 %67 to i32
  %69 = sub nsw i32 8, %68
  %70 = lshr i32 %39, %69
  %71 = load i8, ptr %17, align 4
  %72 = zext nneg i8 %71 to i32
  %73 = shl i32 %70, %72
  %74 = load i8, ptr %18, align 1
  %75 = zext i8 %74 to i32
  %76 = sub nsw i32 8, %75
  %77 = lshr i32 %52, %76
  %78 = load i8, ptr %19, align 1
  %79 = zext nneg i8 %78 to i32
  %80 = shl i32 %77, %79
  %81 = or i32 %80, %73
  %82 = load i8, ptr %20, align 2
  %83 = zext i8 %82 to i32
  %84 = sub nsw i32 8, %83
  %85 = lshr i32 %65, %84
  %86 = load i8, ptr %21, align 2
  %87 = zext nneg i8 %86 to i32
  %88 = shl i32 %85, %87
  %89 = or i32 %81, %88
  %90 = load i8, ptr %22, align 1
  %91 = zext i8 %90 to i32
  %92 = sub nsw i32 8, %91
  %93 = lshr i32 %66, %92
  %94 = load i8, ptr %23, align 1
  %95 = zext nneg i8 %94 to i32
  %96 = shl i32 %93, %95
  %97 = or i32 %89, %96
  store i32 %97, ptr %.037, align 4
  %98 = getelementptr inbounds nuw i8, ptr %.037, i64 4
  %99 = add nuw nsw i32 %.03236, 1
  %exitcond.not = icmp eq i32 %99, %2
  br i1 %exitcond.not, label %._crit_edge, label %24, !llvm.loop !84

._crit_edge:                                      ; preds = %24, %5
  %100 = shl nsw i32 %2, 2
  ret i32 %100
}